target datalayout = "e-m:e-p270:32:32-p271:32:32-p272:64:64-i64:64-i128:128-f80:128-n8:16:32:64-S128"
target triple = "x86_64-pc-linux-gnu"

%struct.mi_heap_s = type { ptr, ptr, i64, i32, i64, [2 x i64], %struct.mi_random_cxt_s, i64, i64, i64, ptr, i8, i8, [129 x ptr], [75 x %struct.mi_page_queue_s] }
%struct.mi_random_cxt_s = type { [16 x i32], [16 x i32], i32, i8 }
%struct.mi_page_queue_s = type { ptr, ptr, i64 }
%struct.mi_block_s = type { i64 }

; Function Attrs: inlinehint nounwind uwtable
define internal void @mi_block_set_nextx(ptr noundef %0, ptr noundef %1, ptr noundef %2, ptr noundef %3) #1 {
  %5 = alloca ptr, align 8
  %6 = alloca ptr, align 8
  %7 = alloca ptr, align 8
  %8 = alloca ptr, align 8
  store ptr %0, ptr %5, align 8, !tbaa !57
  store ptr %1, ptr %6, align 8, !tbaa !42
  store ptr %2, ptr %7, align 8, !tbaa !42
  store ptr %3, ptr %8, align 8, !tbaa !58
  %9 = load ptr, ptr %7, align 8, !tbaa !42
  %10 = ptrtoint ptr %9 to i64
  %11 = load ptr, ptr %6, align 8, !tbaa !42
  %12 = getelementptr inbounds nuw %struct.mi_block_s, ptr %11, i32 0, i32 0
  store i64 %10, ptr %12, align 8, !tbaa !60
  ret void
}

; Function Attrs: inlinehint nounwind uwtable
define internal ptr @mi_block_nextx(ptr noundef %0, ptr noundef %1, ptr noundef %2) #1 {
  %4 = alloca ptr, align 8
  %5 = alloca ptr, align 8
  %6 = alloca ptr, align 8
  %7 = alloca ptr, align 8
  store ptr %0, ptr %4, align 8, !tbaa !57
  store ptr %1, ptr %5, align 8, !tbaa !42
  store ptr %2, ptr %6, align 8, !tbaa !58
  call void @llvm.lifetime.start.p0(i64 8, ptr %7) #6
  %8 = load ptr, ptr %5, align 8, !tbaa !42
  %9 = getelementptr inbounds nuw %struct.mi_block_s, ptr %8, i32 0, i32 0
  %10 = load i64, ptr %9, align 8, !tbaa !60
  %11 = inttoptr i64 %10 to ptr
  store ptr %11, ptr %7, align 8, !tbaa !42
  %12 = load ptr, ptr %7, align 8, !tbaa !42
  call void @llvm.lifetime.end.p0(i64 8, ptr %7) #6
  ret ptr %12
}

; Function Attrs: inlinehint nounwind uwtable
define internal void @mi_atomic_yield() #1 {
  call void @llvm.x86.sse2.pause()
  ret void
}

; Function Attrs: nounwind uwtable
define hidden zeroext i1 @_mi_heap_delayed_free_partial(ptr noundef %0) #0 {
  %2 = alloca ptr, align 8
  %3 = alloca ptr, align 8
  %4 = alloca ptr, align 8
  %5 = alloca ptr, align 8
  %6 = alloca i8, align 1
  %7 = alloca i8, align 1
  %8 = alloca ptr, align 8
  %9 = alloca ptr, align 8
  %10 = alloca ptr, align 8
  %11 = alloca ptr, align 8
  %12 = alloca i8, align 1
  store ptr %0, ptr %2, align 8, !tbaa !12
  call void @llvm.lifetime.start.p0(i64 8, ptr %3) #6
  %13 = load ptr, ptr %2, align 8, !tbaa !12
  %14 = getelementptr inbounds nuw %struct.mi_heap_s, ptr %13, i32 0, i32 1
  %15 = load atomic i64, ptr %14 monotonic, align 8
  store i64 %15, ptr %4, align 8
  %16 = load ptr, ptr %4, align 8, !tbaa !42
  store ptr %16, ptr %3, align 8, !tbaa !42
  br label %17

17:                                               ; preds = %36, %1
  %18 = load ptr, ptr %3, align 8, !tbaa !42
  %19 = icmp ne ptr %18, null
  br i1 %19, label %20, label %34

20:                                               ; preds = %17
  %21 = load ptr, ptr %2, align 8, !tbaa !12
  %22 = getelementptr inbounds nuw %struct.mi_heap_s, ptr %21, i32 0, i32 1
  store ptr null, ptr %5, align 8, !tbaa !42
  %23 = load i64, ptr %3, align 8
  %24 = load i64, ptr %5, align 8
  %25 = cmpxchg weak ptr %22, i64 %23, i64 %24 acq_rel acquire, align 8
  %26 = extractvalue { i64, i1 } %25, 0
  %27 = extractvalue { i64, i1 } %25, 1
  br i1 %27, label %29, label %28

28:                                               ; preds = %20
  store i64 %26, ptr %3, align 8
  br label %29

29:                                               ; preds = %28, %20
  %30 = zext i1 %27 to i8
  store i8 %30, ptr %6, align 1, !tbaa !29
  %31 = load i8, ptr %6, align 1, !tbaa !29, !range !31, !noundef !32
  %32 = trunc i8 %31 to i1
  %33 = xor i1 %32, true
  br label %34

34:                                               ; preds = %29, %17
  %35 = phi i1 [ false, %17 ], [ %33, %29 ]
  br i1 %35, label %36, label %37

36:                                               ; preds = %34
  br label %17, !llvm.loop !54

37:                                               ; preds = %34
  call void @llvm.lifetime.start.p0(i64 1, ptr %7) #6
  store i8 1, ptr %7, align 1, !tbaa !29
  br label %38

38:                                               ; preds = %78, %37
  %39 = load ptr, ptr %3, align 8, !tbaa !42
  %40 = icmp ne ptr %39, null
  br i1 %40, label %41, label %80

41:                                               ; preds = %38
  call void @llvm.lifetime.start.p0(i64 8, ptr %8) #6
  %42 = load ptr, ptr %2, align 8, !tbaa !12
  %43 = load ptr, ptr %3, align 8, !tbaa !42
  %44 = load ptr, ptr %2, align 8, !tbaa !12
  %45 = getelementptr inbounds nuw %struct.mi_heap_s, ptr %44, i32 0, i32 5
  %46 = getelementptr inbounds [2 x i64], ptr %45, i64 0, i64 0
  %47 = call ptr @mi_block_nextx(ptr noundef %42, ptr noundef %43, ptr noundef %46) #10
  store ptr %47, ptr %8, align 8, !tbaa !42
  %48 = load ptr, ptr %3, align 8, !tbaa !42
  %49 = call zeroext i1 @_mi_free_delayed_block(ptr noundef %48) #10
  br i1 %49, label %78, label %50

50:                                               ; preds = %41
  store i8 0, ptr %7, align 1, !tbaa !29
  call void @llvm.lifetime.start.p0(i64 8, ptr %9) #6
  %51 = load ptr, ptr %2, align 8, !tbaa !12
  %52 = getelementptr inbounds nuw %struct.mi_heap_s, ptr %51, i32 0, i32 1
  %53 = load atomic i64, ptr %52 monotonic, align 8
  store i64 %53, ptr %10, align 8
  %54 = load ptr, ptr %10, align 8, !tbaa !42
  store ptr %54, ptr %9, align 8, !tbaa !42
  br label %55

55:                                               ; preds = %72, %50
  %56 = load ptr, ptr %2, align 8, !tbaa !12
  %57 = load ptr, ptr %3, align 8, !tbaa !42
  %58 = load ptr, ptr %9, align 8, !tbaa !42
  %59 = load ptr, ptr %2, align 8, !tbaa !12
  %60 = getelementptr inbounds nuw %struct.mi_heap_s, ptr %59, i32 0, i32 5
  %61 = getelementptr inbounds [2 x i64], ptr %60, i64 0, i64 0
  call void @mi_block_set_nextx(ptr noundef %56, ptr noundef %57, ptr noundef %58, ptr noundef %61) #10
  br label %62

62:                                               ; preds = %55
  %63 = load ptr, ptr %2, align 8, !tbaa !12
  %64 = getelementptr inbounds nuw %struct.mi_heap_s, ptr %63, i32 0, i32 1
  %65 = load ptr, ptr %3, align 8, !tbaa !42
  store ptr %65, ptr %11, align 8, !tbaa !42
  %66 = load i64, ptr %9, align 8
  %67 = load i64, ptr %11, align 8
  %68 = cmpxchg weak ptr %64, i64 %66, i64 %67 release monotonic, align 8
  %69 = extractvalue { i64, i1 } %68, 0
  %70 = extractvalue { i64, i1 } %68, 1
  br i1 %70, label %72, label %71

71:                                               ; preds = %62
  store i64 %69, ptr %9, align 8
  br label %72

72:                                               ; preds = %71, %62
  %73 = zext i1 %70 to i8
  store i8 %73, ptr %12, align 1, !tbaa !29
  %74 = load i8, ptr %12, align 1, !tbaa !29, !range !31, !noundef !32
  %75 = trunc i8 %74 to i1
  %76 = xor i1 %75, true
  br i1 %76, label %55, label %77, !llvm.loop !55

77:                                               ; preds = %72
  call void @llvm.lifetime.end.p0(i64 8, ptr %9) #6
  br label %78

78:                                               ; preds = %77, %41
  %79 = load ptr, ptr %8, align 8, !tbaa !42
  store ptr %79, ptr %3, align 8, !tbaa !42
  call void @llvm.lifetime.end.p0(i64 8, ptr %8) #6
  br label %38, !llvm.loop !56

80:                                               ; preds = %38
  %81 = load i8, ptr %7, align 1, !tbaa !29, !range !31, !noundef !32
  %82 = trunc i8 %81 to i1
  call void @llvm.lifetime.end.p0(i64 1, ptr %7) #6
  call void @llvm.lifetime.end.p0(i64 8, ptr %3) #6
  ret i1 %82
}

; Function Attrs: nounwind uwtable
define hidden void @_mi_heap_delayed_free_all(ptr noundef %0) #0 {
  %2 = alloca ptr, align 8
  store ptr %0, ptr %2, align 8, !tbaa !12
  br label %3

3:                                                ; preds = %7, %1
  %4 = load ptr, ptr %2, align 8, !tbaa !12
  %5 = call zeroext i1 @_mi_heap_delayed_free_partial(ptr noundef %4) #10
  %6 = xor i1 %5, true
  br i1 %6, label %7, label %8

7:                                                ; preds = %3
  call void @mi_atomic_yield() #10
  br label %3, !llvm.loop !53

8:                                                ; preds = %3
  ret void
}