; Function Attrs: nounwind uwtable
define hidden void @_mi_heap_delayed_free_all(ptr noundef captures(none) %0) local_unnamed_addr #1 {
  %2 = getelementptr inbounds nuw i8, ptr %0, i64 8
  %3 = load atomic i64, ptr %2 monotonic, align 8
  %.old1.not.i2 = icmp eq i64 %3, 0
  br i1 %.old1.not.i2, label %_mi_heap_delayed_free_partial.exit.thread, label %.preheader.preheader.i

.preheader.preheader.i:                           ; preds = %1, %_mi_heap_delayed_free_partial.exit.thread6
  %4 = phi i64 [ %21, %_mi_heap_delayed_free_partial.exit.thread6 ], [ %3, %1 ]
  %5 = inttoptr i64 %4 to ptr
  br label %.preheader.i

.preheader.i:                                     ; preds = %.preheader.i, %.preheader.preheader.i
  %.0.i = phi ptr [ %.1.i, %.preheader.i ], [ %5, %.preheader.preheader.i ]
  %6 = ptrtoint ptr %.0.i to i64
  %7 = cmpxchg weak ptr %2, i64 %6, i64 0 acq_rel acquire, align 8
  %8 = extractvalue { i64, i1 } %7, 1
  %9 = extractvalue { i64, i1 } %7, 0
  %10 = inttoptr i64 %9 to ptr
  %.1.i = select i1 %8, ptr %.0.i, ptr %10
  %11 = icmp eq ptr %.1.i, null
  %or.cond.not.i = select i1 %8, i1 true, i1 %11
  br i1 %or.cond.not.i, label %.critedge.i, label %.preheader.i, !llvm.loop !45

.critedge.i:                                      ; preds = %.preheader.i
  br i1 %11, label %_mi_heap_delayed_free_partial.exit.thread, label %.lr.ph.i.outer

.lr.ph.i.outer:                                   ; preds = %.critedge.i, %.loopexit.i.thread
  %.333.i.ph = phi ptr [ %12, %.loopexit.i.thread ], [ %.1.i, %.critedge.i ]
  %.02532.i.ph = phi i1 [ false, %.loopexit.i.thread ], [ true, %.critedge.i ]
  br label %.lr.ph.i

.lr.ph.i:                                         ; preds = %.lr.ph.i.outer, %.loopexit.i
  %.333.i = phi ptr [ %12, %.loopexit.i ], [ %.333.i.ph, %.lr.ph.i.outer ]
  %.3.val.i = load i64, ptr %.333.i, align 8, !tbaa !31
  %12 = inttoptr i64 %.3.val.i to ptr
  %13 = tail call zeroext i1 @_mi_free_delayed_block(ptr noundef nonnull %.333.i) #13
  br i1 %13, label %.loopexit.i, label %14

14:                                               ; preds = %.lr.ph.i
  %15 = load atomic i64, ptr %2 monotonic, align 8
  %16 = ptrtoint ptr %.333.i to i64
  br label %17

17:                                               ; preds = %17, %14
  %.027.in.i = phi i64 [ %15, %14 ], [ %20, %17 ]
  store i64 %.027.in.i, ptr %.333.i, align 8, !tbaa !31
  %18 = cmpxchg weak ptr %2, i64 %.027.in.i, i64 %16 release monotonic, align 8
  %19 = extractvalue { i64, i1 } %18, 1
  %20 = extractvalue { i64, i1 } %18, 0
  br i1 %19, label %.loopexit.i.thread, label %17, !llvm.loop !46

.loopexit.i:                                      ; preds = %.lr.ph.i
  %.not.i = icmp eq i64 %.3.val.i, 0
  br i1 %.not.i, label %_mi_heap_delayed_free_partial.exit, label %.lr.ph.i, !llvm.loop !47

.loopexit.i.thread:                               ; preds = %17
  %.not.i4 = icmp eq i64 %.3.val.i, 0
  br i1 %.not.i4, label %_mi_heap_delayed_free_partial.exit.thread6, label %.lr.ph.i.outer, !llvm.loop !47

_mi_heap_delayed_free_partial.exit:               ; preds = %.loopexit.i
  br i1 %.02532.i.ph, label %_mi_heap_delayed_free_partial.exit.thread, label %_mi_heap_delayed_free_partial.exit.thread6

_mi_heap_delayed_free_partial.exit.thread6:       ; preds = %.loopexit.i.thread, %_mi_heap_delayed_free_partial.exit
  tail call void @llvm.x86.sse2.pause()
  %21 = load atomic i64, ptr %2 monotonic, align 8
  %.old1.not.i = icmp eq i64 %21, 0
  br i1 %.old1.not.i, label %_mi_heap_delayed_free_partial.exit.thread, label %.preheader.preheader.i, !llvm.loop !48

_mi_heap_delayed_free_partial.exit.thread:        ; preds = %_mi_heap_delayed_free_partial.exit, %.critedge.i, %_mi_heap_delayed_free_partial.exit.thread6, %1
  ret void
}